; Function Attrs: mustprogress nounwind uwtable
define dso_local noundef zeroext i1 @_ZNK8tinygltf4SkineqERKS0_(ptr noundef nonnull align 8 dereferenceable(64) %0, ptr noundef nonnull align 8 dereferenceable(64) %1) local_unnamed_addr #4 align 2 personality ptr @__gxx_personality_v0 {
  %3 = getelementptr inbounds i8, ptr %0, i64 32
  %4 = load i32, ptr %3, align 8
  %5 = getelementptr inbounds i8, ptr %1, i64 32
  %6 = load i32, ptr %5, align 8
  %7 = icmp eq i32 %4, %6
  br i1 %7, label %8, label %_ZSteqIiSaIiEEbRKSt6vectorIT_T0_ES6_.exit.thread5

8:                                                ; preds = %2
  %9 = getelementptr inbounds i8, ptr %0, i64 40
  %10 = getelementptr inbounds i8, ptr %1, i64 40
  %11 = getelementptr inbounds i8, ptr %0, i64 48
  %12 = load ptr, ptr %11, align 8
  %13 = load ptr, ptr %9, align 8
  %14 = ptrtoint ptr %12 to i64
  %15 = ptrtoint ptr %13 to i64
  %16 = sub i64 %14, %15
  %17 = getelementptr inbounds i8, ptr %1, i64 48
  %18 = load ptr, ptr %17, align 8
  %19 = load ptr, ptr %10, align 8
  %20 = ptrtoint ptr %18 to i64
  %21 = ptrtoint ptr %19 to i64
  %22 = sub i64 %20, %21
  %23 = icmp eq i64 %16, %22
  br i1 %23, label %24, label %_ZSteqIiSaIiEEbRKSt6vectorIT_T0_ES6_.exit.thread5

24:                                               ; preds = %8
  %.not.i.i.i.i.i = icmp eq ptr %12, %13
  br i1 %.not.i.i.i.i.i, label %_ZSteqIiSaIiEEbRKSt6vectorIT_T0_ES6_.exit.thread, label %_ZSteqIiSaIiEEbRKSt6vectorIT_T0_ES6_.exit

_ZSteqIiSaIiEEbRKSt6vectorIT_T0_ES6_.exit:        ; preds = %24
  %bcmp.i.i.i.i.i = tail call i32 @bcmp(ptr %13, ptr %19, i64 %16)
  %.not7.i.i.i.i.i = icmp eq i32 %bcmp.i.i.i.i.i, 0
  br i1 %.not7.i.i.i.i.i, label %_ZSteqIiSaIiEEbRKSt6vectorIT_T0_ES6_.exit.thread, label %_ZSteqIiSaIiEEbRKSt6vectorIT_T0_ES6_.exit.thread5

_ZSteqIiSaIiEEbRKSt6vectorIT_T0_ES6_.exit.thread: ; preds = %24, %_ZSteqIiSaIiEEbRKSt6vectorIT_T0_ES6_.exit
  %25 = tail call noundef i64 @_ZNKSt7__cxx1112basic_stringIcSt11char_traitsIcESaIcEE4sizeEv(ptr noundef nonnull align 8 dereferenceable(32) %0) #30
  %26 = tail call noundef i64 @_ZNKSt7__cxx1112basic_stringIcSt11char_traitsIcESaIcEE4sizeEv(ptr noundef nonnull align 8 dereferenceable(32) %1) #30
  %27 = icmp eq i64 %25, %26
  br i1 %27, label %28, label %_ZSteqIiSaIiEEbRKSt6vectorIT_T0_ES6_.exit.thread5

28:                                               ; preds = %_ZSteqIiSaIiEEbRKSt6vectorIT_T0_ES6_.exit.thread
  %29 = tail call noundef ptr @_ZNKSt7__cxx1112basic_stringIcSt11char_traitsIcESaIcEE4dataEv(ptr noundef nonnull align 8 dereferenceable(32) %0) #30
  %30 = tail call noundef ptr @_ZNKSt7__cxx1112basic_stringIcSt11char_traitsIcESaIcEE4dataEv(ptr noundef nonnull align 8 dereferenceable(32) %1) #30
  %31 = tail call noundef i64 @_ZNKSt7__cxx1112basic_stringIcSt11char_traitsIcESaIcEE4sizeEv(ptr noundef nonnull align 8 dereferenceable(32) %0) #30
  %32 = icmp eq i64 %31, 0
  br i1 %32, label %_ZSteqIcEN9__gnu_cxx11__enable_ifIXsr9__is_charIT_EE7__valueEbE6__typeERKNSt7__cxx1112basic_stringIS2_St11char_traitsIS2_ESaIS2_EEESC_.exit.thread, label %_ZSteqIcEN9__gnu_cxx11__enable_ifIXsr9__is_charIT_EE7__valueEbE6__typeERKNSt7__cxx1112basic_stringIS2_St11char_traitsIS2_ESaIS2_EEESC_.exit

_ZSteqIcEN9__gnu_cxx11__enable_ifIXsr9__is_charIT_EE7__valueEbE6__typeERKNSt7__cxx1112basic_stringIS2_St11char_traitsIS2_ESaIS2_EEESC_.exit: ; preds = %28
  %bcmp.i = tail call i32 @bcmp(ptr %29, ptr %30, i64 %31)
  %33 = icmp eq i32 %bcmp.i, 0
  br i1 %33, label %_ZSteqIcEN9__gnu_cxx11__enable_ifIXsr9__is_charIT_EE7__valueEbE6__typeERKNSt7__cxx1112basic_stringIS2_St11char_traitsIS2_ESaIS2_EEESC_.exit.thread, label %_ZSteqIiSaIiEEbRKSt6vectorIT_T0_ES6_.exit.thread5

_ZSteqIcEN9__gnu_cxx11__enable_ifIXsr9__is_charIT_EE7__valueEbE6__typeERKNSt7__cxx1112basic_stringIS2_St11char_traitsIS2_ESaIS2_EEESC_.exit.thread: ; preds = %28, %_ZSteqIcEN9__gnu_cxx11__enable_ifIXsr9__is_charIT_EE7__valueEbE6__typeERKNSt7__cxx1112basic_stringIS2_St11char_traitsIS2_ESaIS2_EEESC_.exit
  %34 = getelementptr inbounds i8, ptr %0, i64 36
  %35 = load i32, ptr %34, align 4
  %36 = getelementptr inbounds i8, ptr %1, i64 36
  %37 = load i32, ptr %36, align 4
  %38 = icmp eq i32 %35, %37
  br label %_ZSteqIiSaIiEEbRKSt6vectorIT_T0_ES6_.exit.thread5

_ZSteqIiSaIiEEbRKSt6vectorIT_T0_ES6_.exit.thread5: ; preds = %_ZSteqIiSaIiEEbRKSt6vectorIT_T0_ES6_.exit.thread, %8, %_ZSteqIcEN9__gnu_cxx11__enable_ifIXsr9__is_charIT_EE7__valueEbE6__typeERKNSt7__cxx1112basic_stringIS2_St11char_traitsIS2_ESaIS2_EEESC_.exit.thread, %_ZSteqIcEN9__gnu_cxx11__enable_ifIXsr9__is_charIT_EE7__valueEbE6__typeERKNSt7__cxx1112basic_stringIS2_St11char_traitsIS2_ESaIS2_EEESC_.exit, %_ZSteqIiSaIiEEbRKSt6vectorIT_T0_ES6_.exit, %2
  %39 = phi i1 [ false, %_ZSteqIcEN9__gnu_cxx11__enable_ifIXsr9__is_charIT_EE7__valueEbE6__typeERKNSt7__cxx1112basic_stringIS2_St11char_traitsIS2_ESaIS2_EEESC_.exit ], [ false, %_ZSteqIiSaIiEEbRKSt6vectorIT_T0_ES6_.exit ], [ false, %2 ], [ %38, %_ZSteqIcEN9__gnu_cxx11__enable_ifIXsr9__is_charIT_EE7__valueEbE6__typeERKNSt7__cxx1112basic_stringIS2_St11char_traitsIS2_ESaIS2_EEESC_.exit.thread ], [ false, %8 ], [ false, %_ZSteqIiSaIiEEbRKSt6vectorIT_T0_ES6_.exit.thread ]
  ret i1 %39
}